; Function Attrs: mustprogress nofree norecurse nosync nounwind willreturn memory(readwrite, inaccessiblemem: write) uwtable
define dso_local void @_ZN4Luau8TypePath8Property4readENSt7__cxx1112basic_stringIcSt11char_traitsIcESaIcEEE(ptr dead_on_unwind noalias writable sret(%"struct.Luau::TypePath::Property") align 8 %0, ptr noundef %1) local_unnamed_addr #5 align 2 personality ptr @__gxx_personality_v0 {
  %.sroa.2 = alloca %union.anon, align 8
  %3 = load ptr, ptr %1, align 8, !tbaa !22
  %4 = getelementptr inbounds nuw i8, ptr %1, i64 16
  %5 = icmp eq ptr %3, %4
  br i1 %5, label %_ZNSt7__cxx1112basic_stringIcSt11char_traitsIcESaIcEEC2EOS4_.exit.thread, label %_ZNSt7__cxx1112basic_stringIcSt11char_traitsIcESaIcEEC2EOS4_.exit

_ZNSt7__cxx1112basic_stringIcSt11char_traitsIcESaIcEEC2EOS4_.exit.thread: ; preds = %2
  %6 = getelementptr inbounds nuw i8, ptr %1, i64 8
  %7 = load i64, ptr %6, align 8, !tbaa !25
  %8 = icmp ult i64 %7, 16
  tail call void @llvm.assume(i1 %8)
  %9 = add nuw nsw i64 %7, 1
  call void @llvm.memcpy.p0.p0.i64(ptr noundef nonnull align 8 dereferenceable(1) %.sroa.2, ptr noundef nonnull align 8 dereferenceable(1) %4, i64 %9, i1 false)
  %10 = getelementptr inbounds nuw i8, ptr %1, i64 8
  store i64 0, ptr %10, align 8, !tbaa !25
  store i8 0, ptr %4, align 1, !tbaa !26
  %11 = getelementptr inbounds nuw i8, ptr %0, i64 16
  store ptr %11, ptr %0, align 8, !tbaa !19
  %12 = add nuw nsw i64 %7, 1
  call void @llvm.memcpy.p0.p0.i64(ptr noundef nonnull align 8 dereferenceable(1) %11, ptr noundef nonnull align 8 dereferenceable(1) %.sroa.2, i64 %12, i1 false)
  br label %_ZNSt7__cxx1112basic_stringIcSt11char_traitsIcESaIcEED2Ev.exit

_ZNSt7__cxx1112basic_stringIcSt11char_traitsIcESaIcEEC2EOS4_.exit: ; preds = %2
  %13 = load i64, ptr %4, align 8, !tbaa !26
  store i64 %13, ptr %.sroa.2, align 8, !tbaa !26
  %.phi.trans.insert = getelementptr inbounds nuw i8, ptr %1, i64 8
  %.pre = load i64, ptr %.phi.trans.insert, align 8, !tbaa !25
  %14 = getelementptr inbounds nuw i8, ptr %1, i64 8
  store ptr %4, ptr %1, align 8, !tbaa !22
  store i64 0, ptr %14, align 8, !tbaa !25
  store i8 0, ptr %4, align 1, !tbaa !26
  %15 = getelementptr inbounds nuw i8, ptr %0, i64 16
  store ptr %3, ptr %0, align 8, !tbaa !22
  %.sroa.2.0..sroa.2.16. = load i64, ptr %.sroa.2, align 8, !tbaa !26
  store i64 %.sroa.2.0..sroa.2.16., ptr %15, align 8, !tbaa !26
  br label %_ZNSt7__cxx1112basic_stringIcSt11char_traitsIcESaIcEED2Ev.exit

_ZNSt7__cxx1112basic_stringIcSt11char_traitsIcESaIcEED2Ev.exit: ; preds = %_ZNSt7__cxx1112basic_stringIcSt11char_traitsIcESaIcEEC2EOS4_.exit.thread, %_ZNSt7__cxx1112basic_stringIcSt11char_traitsIcESaIcEEC2EOS4_.exit
  %16 = phi i64 [ %7, %_ZNSt7__cxx1112basic_stringIcSt11char_traitsIcESaIcEEC2EOS4_.exit.thread ], [ %.pre, %_ZNSt7__cxx1112basic_stringIcSt11char_traitsIcESaIcEEC2EOS4_.exit ]
  %17 = getelementptr inbounds nuw i8, ptr %0, i64 8
  store i64 %16, ptr %17, align 8, !tbaa !25
  %18 = getelementptr inbounds nuw i8, ptr %0, i64 32
  store i8 1, ptr %18, align 8, !tbaa !27
  ret void
}